; Function Attrs: nounwind uwtable
define hidden i64 @Wayland_primary_selection_source_send(ptr noundef readonly captures(none) %0, ptr noundef %1, i32 noundef %2) local_unnamed_addr #0 {
  %4 = alloca i64, align 8
  call void @llvm.lifetime.start.p0(i64 8, ptr nonnull %4) #12
  store i64 0, ptr %4, align 8
  %5 = getelementptr inbounds nuw i8, ptr %0, i64 24
  %6 = load ptr, ptr %5, align 8
  %.not = icmp eq ptr %6, null
  br i1 %.not, label %11, label %7

7:                                                ; preds = %3
  %8 = getelementptr inbounds nuw i8, ptr %0, i64 40
  %9 = load ptr, ptr %8, align 8
  %10 = call ptr %6(ptr noundef %9, ptr noundef %1, ptr noundef nonnull %4) #12
  %.pre = load i64, ptr %4, align 8
  br label %11

11:                                               ; preds = %7, %3
  %12 = phi i64 [ %.pre, %7 ], [ 0, %3 ]
  %.0 = phi ptr [ %10, %7 ], [ null, %3 ]
  %13 = call fastcc i64 @Wayland_send_data(ptr noundef %.0, i64 noundef %12, i32 noundef %2)
  call void @llvm.lifetime.end.p0(i64 8, ptr nonnull %4) #12
  ret i64 %13
}